Certificate:
    Data:
        Version: 3 (0x2)
        Serial Number: 7 (0x7)
        Signature Algorithm: md5WithRSAEncryption
        Issuer: C=US, ST=California, L=San Francisco, CN=Intermediate CA/emailAddress=i-ca@kir.nu
        Validity
            Not Before: Jan  7 21:46:16 2005 GMT
            Not After : Jan  5 21:46:16 2015 GMT
        Subject: C=US, ST=California, L=San Francisco, CN=Server/emailAddress=server@kir.nu
        Subject Public Key Info:
            Public Key Algorithm: rsaEncryption
            RSA Public Key: (2048 bit)
                Modulus (2048 bit):
                    00:dc:62:fd:6e:a3:41:64:07:2d:ce:32:bd:3f:45:
                    94:4d:77:87:f6:59:35:66:fa:5a:b0:ab:ca:0c:9e:
                    c4:38:e6:a9:ca:13:ce:c7:90:91:00:18:90:aa:89:
                    27:70:c2:ea:b2:da:0e:2a:a7:1b:01:9b:5d:9f:d8:
                    50:05:a2:b4:60:c4:ca:d4:95:a6:57:d7:08:0a:3b:
                    05:1e:16:80:29:8e:e4:73:52:84:00:a2:bb:1c:d9:
                    27:7d:66:30:1c:f4:3f:5a:d8:87:b0:10:05:57:90:
                    b3:36:8d:d3:95:bd:a9:6f:d6:7e:d6:b8:5a:d7:66:
                    75:a3:a0:77:19:3d:6c:dc:5a:27:95:f7:7b:db:a4:
                    fb:16:f1:81:67:7e:51:fa:f7:7f:41:44:78:76:d3:
                    74:d7:fd:14:81:4b:b2:07:23:8f:8a:cb:ff:3c:33:
                    5a:2d:a7:f6:f4:c1:43:70:4a:d1:19:c2:95:14:c8:
                    7c:4b:6e:47:d6:b8:4e:6b:92:71:3f:9e:50:23:ea:
                    be:be:25:2c:68:a8:54:9b:20:f1:f1:0d:b1:80:f7:
                    1e:38:de:f2:ec:bf:12:83:e8:2b:0b:13:06:a1:97:
                    fc:cc:55:c9:19:54:4b:38:82:4f:22:c8:66:50:ac:
                    3e:fa:6f:12:aa:57:63:fa:25:ab:08:ad:fb:93:9e:
                    1c:a3
                Exponent: 65537 (0x10001)
        X509v3 extensions:
            X509v3 Key Usage: 
                Digital Signature, Key Encipherment
            X509v3 Extended Key Usage: 
                TLS Web Client Authentication, TLS Web Server Authentication
    Signature Algorithm: md5WithRSAEncryption
        4a:f2:df:49:97:af:b6:74:93:c0:05:c7:10:2b:e9:03:cc:4e:
        a8:cb:23:26:ad:a0:d8:c6:85:96:30:4b:01:73:eb:d1:04:16:
        a0:ad:58:f0:03:c3:7f:aa:57:4f:de:1a:03:26:c9:3b:81:4f:
        b1:e5:66:3f:39:8d:9b:88:a4:2d:4d:4e:ed:ea:f9:81:1d:9e:
        ce:dd:75:aa:52:97:cd:7e:92:e3:49:8e:56:aa:0f:e0:b7:2b:
        3a:88:d8:d1:36:98:cf:ca:eb:fc:58:39:f2:ba:e7:3d:73:1a:
        f6:7b:ea:74:6f:8a:98:7d:0e:ce:54:c6:e3:ae:ea:28:4b:9e:
        de:a1:e5:9b:20:db:6d:d6:3e:fc:cd:bb:36:8c:14:42:0c:96:
        9c:27:8d:4f:41:f9:ab:86:8e:70:69:ca:e2:9b:38:1d:5c:a0:
        1f:74:36:9e:eb:8b:dc:dd:21:ec:23:0c:64:98:52:53:64:fb:
        42:a9:6c:29:e8:1f:7e:91:31:64:93:11:60:6b:1f:d9:df:3c:
        ee:f4:6a:c5:ea:7c:c0:ff:66:f8:e5:7c:1d:69:69:fd:55:78:
        fe:e7:7b:15:d8:e4:6f:70:a3:12:44:76:eb:4e:fd:9b:bf:5b:
        0c:d6:9c:8a:cb:bf:9a:b4:39:e3:70:1a:20:94:bd:93:27:35:
        55:2e:d1:02
-----BEGIN CERTIFICATE-----
MIIDgjCCAmqgAwIBAgIBBzANBgkqhkiG9w0BAQQFADBwMQswCQYDVQQGEwJVUzET
MBEGA1UECBMKQ2FsaWZvcm5pYTEWMBQGA1UEBxMNU2FuIEZyYW5jaXNjbzEYMBYG
A1UEAxMPSW50ZXJtZWRpYXRlIENBMRowGAYJKoZIhvcNAQkBFgtpLWNhQGtpci5u
dTAeFw0wNTAxMDcyMTQ2MTZaFw0xNTAxMDUyMTQ2MTZaMGkxCzAJBgNVBAYTAlVT
MRMwEQYDVQQIEwpDYWxpZm9ybmlhMRYwFAYDVQQHEw1TYW4gRnJhbmNpc2NvMQ8w
DQYDVQQDEwZTZXJ2ZXIxHDAaBgkqhkiG9w0BCQEWDXNlcnZlckBraXIubnUwggEi
MA0GCSqGSIb3DQEBAQUAA4IBDwAwggEKAoIBAQDcYv1uo0FkBy3OMr0/RZRNd4f2
WTVm+lqwq8oMnsQ45qnKE87HkJEAGJCqiSdwwuqy2g4qpxsBm12f2FAForRgxMrU
laZX1wgKOwUeFoApjuRzUoQAorsc2Sd9ZjAc9D9a2IewEAVXkLM2jdOVvalv1n7W
uFrXZnWjoHcZPWzcWieV93vbpPsW8YFnflH6939BRHh203TX/RSBS7IHI4+Ky/88
M1otp/b0wUNwStEZwpUUyHxLbkfWuE5rknE/nlAj6r6+JSxoqFSbIPHxDbGA9x44
3vLsvxKD6CsLEwahl/zMVckZVEs4gk8iyGZQrD76bxKqV2P6JasIrfuTnhyjAgMB
AAGjLjAsMAsGA1UdDwQEAwIFoDAdBgNVHSUEFjAUBggrBgEFBQcDAgYIKwYBBQUH
AwEwDQYJKoZIhvcNAQEEBQADggEBAEry30mXr7Z0k8AFxxAr6QPMTqjLIyatoNjG
hZYwSwFz69EEFqCtWPADw3+qV0/eGgMmyTuBT7HlZj85jZuIpC1NTu3q+YEdns7d
dapSl81+kuNJjlaqD+C3KzqI2NE2mM/K6/xYOfK65z1zGvZ76nRviph9Ds5UxuOu
6ihLnt6h5Zsg223WPvzNuzaMFEIMlpwnjU9B+auGjnBpyuKbOB1coB90Np7ri9zd
IewjDGSYUlNk+0KpbCnoH36RMWSTEWBrH9nfPO70asXqfMD/ZvjlfB1paf1VeP7n
exXY5G9woxJEdutO/Zu/WwzWnIrLv5q0OeNwGiCUvZMnNVUu0QI=
-----END CERTIFICATE-----
